; Function Attrs: mustprogress uwtable
define hidden noundef nonnull align 8 dereferenceable(8) ptr @_ZNK3smt7context15display_clausesERSoRK10ptr_vectorINS_6clauseEE(ptr nonnull readnone align 8 captures(none) %0, ptr noundef nonnull returned align 8 dereferenceable(8) %1, ptr noundef nonnull readonly align 8 captures(none) dereferenceable(8) %2) local_unnamed_addr #4 align 2 {
  %4 = load ptr, ptr %2, align 8, !tbaa !571
  %5 = icmp eq ptr %4, null
  br i1 %5, label %._crit_edge29, label %_ZNK6vectorIPN3smt6clauseELb0EjE3endEv.exit

_ZNK6vectorIPN3smt6clauseELb0EjE3endEv.exit:      ; preds = %3
  %6 = getelementptr inbounds i8, ptr %4, i64 -4
  %7 = load i32, ptr %6, align 4, !tbaa !505
  %8 = zext i32 %7 to i64
  %9 = getelementptr inbounds nuw ptr, ptr %4, i64 %8
  %.not26 = icmp eq i32 %7, 0
  br i1 %.not26, label %._crit_edge29, label %.lr.ph28

._crit_edge29:                                    ; preds = %._crit_edge, %3, %_ZNK6vectorIPN3smt6clauseELb0EjE3endEv.exit
  ret ptr %1

.lr.ph28:                                         ; preds = %_ZNK6vectorIPN3smt6clauseELb0EjE3endEv.exit, %._crit_edge
  %.027 = phi ptr [ %16, %._crit_edge ], [ %4, %_ZNK6vectorIPN3smt6clauseELb0EjE3endEv.exit ]
  %10 = load ptr, ptr %.027, align 8, !tbaa !552
  %11 = tail call noundef nonnull align 8 dereferenceable(8) ptr @_ZSt16__ostream_insertIcSt11char_traitsIcEERSt13basic_ostreamIT_T0_ES6_PKS3_l(ptr noundef nonnull align 8 dereferenceable(8) %1, ptr noundef nonnull @.str.38, i64 noundef 1)
  %12 = load i32, ptr %10, align 4, !tbaa !568
  %13 = zext i32 %12 to i64
  %.idx = shl nuw nsw i64 %13, 2
  %14 = getelementptr inbounds nuw i8, ptr %10, i64 %.idx
  %.ptr30 = getelementptr inbounds nuw i8, ptr %14, i64 8
  %.not2223 = icmp eq i32 %12, 0
  br i1 %.not2223, label %._crit_edge, label %.lr.ph.preheader

.lr.ph.preheader:                                 ; preds = %.lr.ph28
  %.ptr = getelementptr inbounds nuw i8, ptr %10, i64 8
  br label %.lr.ph

._crit_edge:                                      ; preds = %_ZN3satlsERSoNS_7literalE.exit, %.lr.ph28
  %15 = tail call noundef nonnull align 8 dereferenceable(8) ptr @_ZSt16__ostream_insertIcSt11char_traitsIcEERSt13basic_ostreamIT_T0_ES6_PKS3_l(ptr noundef nonnull align 8 dereferenceable(8) %1, ptr noundef nonnull @.str.39, i64 noundef 2)
  %16 = getelementptr inbounds nuw i8, ptr %.027, i64 8
  %.not = icmp eq ptr %16, %9
  br i1 %.not, label %._crit_edge29, label %.lr.ph28

.lr.ph:                                           ; preds = %.lr.ph.preheader, %_ZN3satlsERSoNS_7literalE.exit
  %.02025 = phi i1 [ false, %_ZN3satlsERSoNS_7literalE.exit ], [ true, %.lr.ph.preheader ]
  %.02124 = phi ptr [ %31, %_ZN3satlsERSoNS_7literalE.exit ], [ %.ptr, %.lr.ph.preheader ]
  %.sroa.01.0.copyload = load i32, ptr %.02124, align 4, !tbaa !505
  br i1 %.02025, label %19, label %17

17:                                               ; preds = %.lr.ph
  %18 = tail call noundef nonnull align 8 dereferenceable(8) ptr @_ZSt16__ostream_insertIcSt11char_traitsIcEERSt13basic_ostreamIT_T0_ES6_PKS3_l(ptr noundef nonnull align 8 dereferenceable(8) %1, ptr noundef nonnull @.str.10, i64 noundef 1)
  br label %19

19:                                               ; preds = %17, %.lr.ph
  %20 = icmp eq i32 %.sroa.01.0.copyload, -2
  br i1 %20, label %21, label %23

21:                                               ; preds = %19
  %22 = tail call noundef nonnull align 8 dereferenceable(8) ptr @_ZSt16__ostream_insertIcSt11char_traitsIcEERSt13basic_ostreamIT_T0_ES6_PKS3_l(ptr noundef nonnull align 8 dereferenceable(8) %1, ptr noundef nonnull @.str.121, i64 noundef 4)
  br label %_ZN3satlsERSoNS_7literalE.exit

23:                                               ; preds = %19
  %24 = and i32 %.sroa.01.0.copyload, 1
  %.not.not.i = icmp eq i32 %24, 0
  %25 = select i1 %.not.not.i, ptr @.str.123, ptr @.str.122
  %26 = zext nneg i32 %24 to i64
  %27 = tail call noundef nonnull align 8 dereferenceable(8) ptr @_ZSt16__ostream_insertIcSt11char_traitsIcEERSt13basic_ostreamIT_T0_ES6_PKS3_l(ptr noundef nonnull align 8 dereferenceable(8) %1, ptr noundef nonnull %25, i64 noundef %26)
  %28 = lshr i32 %.sroa.01.0.copyload, 1
  %29 = zext nneg i32 %28 to i64
  %30 = tail call noundef nonnull align 8 dereferenceable(8) ptr @_ZNSo9_M_insertImEERSoT_(ptr noundef nonnull align 8 dereferenceable(8) %1, i64 noundef %29)
  br label %_ZN3satlsERSoNS_7literalE.exit

_ZN3satlsERSoNS_7literalE.exit:                   ; preds = %21, %23
  %31 = getelementptr inbounds nuw i8, ptr %.02124, i64 4
  %.not22 = icmp eq ptr %31, %.ptr30
  br i1 %.not22, label %._crit_edge, label %.lr.ph
}